target datalayout = "e-m:e-p270:32:32-p271:32:32-p272:64:64-i64:64-i128:128-f80:128-n8:16:32:64-S128"
target triple = "x86_64-pc-linux-gnu"

%struct._PyJumpTargetLabel = type { i32 }
%struct._PyCfgBuilder = type { ptr, ptr, ptr, %struct._PyJumpTargetLabel }
%struct._PyCfgBasicblock = type { ptr, %struct._PyJumpTargetLabel, ptr, ptr, ptr, i32, i32, i64, i32, i32, i8 }

; Function Attrs: nounwind uwtable
define hidden void @_PyCfgBuilder_Free(ptr noundef %0) #0 {
  %2 = alloca ptr, align 8
  %3 = alloca ptr, align 8
  %4 = alloca ptr, align 8
  store ptr %0, ptr %2, align 8, !tbaa !4
  %5 = load ptr, ptr %2, align 8, !tbaa !4
  %6 = icmp eq ptr %5, null
  br i1 %6, label %7, label %8

7:                                                ; preds = %1
  br label %32

8:                                                ; preds = %1
  call void @llvm.lifetime.start.p0(i64 8, ptr %3) #7
  %9 = load ptr, ptr %2, align 8, !tbaa !4
  %10 = getelementptr inbounds nuw %struct._PyCfgBuilder, ptr %9, i32 0, i32 1
  %11 = load ptr, ptr %10, align 8, !tbaa !9
  store ptr %11, ptr %3, align 8, !tbaa !14
  br label %12

12:                                               ; preds = %24, %8
  %13 = load ptr, ptr %3, align 8, !tbaa !14
  %14 = icmp ne ptr %13, null
  br i1 %14, label %15, label %30

15:                                               ; preds = %12
  %16 = load ptr, ptr %3, align 8, !tbaa !14
  %17 = getelementptr inbounds nuw %struct._PyCfgBasicblock, ptr %16, i32 0, i32 3
  %18 = load ptr, ptr %17, align 8, !tbaa !20
  %19 = icmp ne ptr %18, null
  br i1 %19, label %20, label %24

20:                                               ; preds = %15
  %21 = load ptr, ptr %3, align 8, !tbaa !14
  %22 = getelementptr inbounds nuw %struct._PyCfgBasicblock, ptr %21, i32 0, i32 3
  %23 = load ptr, ptr %22, align 8, !tbaa !20
  call void @PyMem_Free(ptr noundef %23)
  br label %24

24:                                               ; preds = %20, %15
  call void @llvm.lifetime.start.p0(i64 8, ptr %4) #7
  %25 = load ptr, ptr %3, align 8, !tbaa !14
  %26 = getelementptr inbounds nuw %struct._PyCfgBasicblock, ptr %25, i32 0, i32 0
  %27 = load ptr, ptr %26, align 8, !tbaa !25
  store ptr %27, ptr %4, align 8, !tbaa !14
  %28 = load ptr, ptr %3, align 8, !tbaa !14
  call void @PyMem_Free(ptr noundef %28)
  %29 = load ptr, ptr %4, align 8, !tbaa !14
  store ptr %29, ptr %3, align 8, !tbaa !14
  call void @llvm.lifetime.end.p0(i64 8, ptr %4) #7
  br label %12, !llvm.loop !26

30:                                               ; preds = %12
  %31 = load ptr, ptr %2, align 8, !tbaa !4
  call void @PyMem_Free(ptr noundef %31)
  call void @llvm.lifetime.end.p0(i64 8, ptr %3) #7
  br label %32

32:                                               ; preds = %30, %7
  ret void
}