; Function Attrs: nounwind uwtable
define hidden void @_PyCfgBuilder_Free(ptr noundef %0) local_unnamed_addr #0 {
  %2 = icmp eq ptr %0, null
  br i1 %2, label %11, label %3

3:                                                ; preds = %1
  %4 = getelementptr inbounds nuw i8, ptr %0, i64 8
  %5 = load ptr, ptr %4, align 8, !tbaa !4
  %.not12 = icmp eq ptr %5, null
  br i1 %.not12, label %._crit_edge, label %.lr.ph

.lr.ph:                                           ; preds = %3, %9
  %.013 = phi ptr [ %10, %9 ], [ %5, %3 ]
  %6 = getelementptr inbounds nuw i8, ptr %.013, i64 24
  %7 = load ptr, ptr %6, align 8, !tbaa !20
  %.not11 = icmp eq ptr %7, null
  br i1 %.not11, label %9, label %8

8:                                                ; preds = %.lr.ph
  tail call void @PyMem_Free(ptr noundef nonnull %7) #8
  br label %9

9:                                                ; preds = %8, %.lr.ph
  %10 = load ptr, ptr %.013, align 8, !tbaa !12
  tail call void @PyMem_Free(ptr noundef nonnull %.013) #8
  %.not = icmp eq ptr %10, null
  br i1 %.not, label %._crit_edge, label %.lr.ph, !llvm.loop !21

._crit_edge:                                      ; preds = %9, %3
  tail call void @PyMem_Free(ptr noundef nonnull %0) #8
  br label %11

11:                                               ; preds = %1, %._crit_edge
  ret void
}